; Function Attrs: null_pointer_is_valid sspstrong uwtable
define internal i32 @dissect_xnap_T_cellmeasurementFailedReportCharacteristics(ptr noundef %0, i32 noundef %1, ptr noundef %2, ptr noundef %3, i32 noundef %4) #0 {
  %6 = alloca ptr, align 8
  call void @llvm.lifetime.start.p0(i64 8, ptr nonnull %6) #9
  store ptr null, ptr %6, align 8
  %7 = call i32 @dissect_per_bit_string(ptr noundef %0, i32 noundef %1, ptr noundef %2, ptr noundef %3, i32 noundef %4, i32 noundef 32, i32 noundef 32, i1 noundef zeroext false, ptr noundef null, i32 noundef 0, ptr noundef nonnull %6, ptr noundef null)
  %8 = load ptr, ptr %6, align 8
  %.not = icmp eq ptr %8, null
  br i1 %.not, label %15, label %9

9:                                                ; preds = %5
  %10 = getelementptr inbounds nuw i8, ptr %2, i64 24
  %11 = load ptr, ptr %10, align 8
  %12 = load i32, ptr @ett_xnap_cellmeasurementFailedReportCharacteristics, align 4
  %13 = call ptr @proto_item_add_subtree(ptr noundef %11, i32 noundef %12)
  %14 = load ptr, ptr %6, align 8
  call void @proto_tree_add_bitmask_list(ptr noundef %13, ptr noundef %14, i32 noundef 0, i32 noundef 4, ptr noundef nonnull @dissect_xnap_T_cellmeasurementFailedReportCharacteristics.fields, i32 noundef 0)
  br label %15

15:                                               ; preds = %9, %5
  call void @llvm.lifetime.end.p0(i64 8, ptr nonnull %6) #9
  ret i32 %7
}